; Function Attrs: nounwind uwtable
define i32 @wc_ecc_mulmod_ex(ptr noundef %k, ptr noundef %G, ptr noundef %R, ptr noundef readnone captures(none) %a, ptr noundef %modulus, i32 noundef %map, ptr readnone captures(none) %heap) local_unnamed_addr #2 {
entry:
  %M = alloca [3 x ptr], align 16
  %mp = alloca i64, align 8
  call void @llvm.memset.p0.i64(ptr noundef nonnull align 16 dereferenceable(24) %M, i8 0, i64 24, i1 false)
  %cmp = icmp eq ptr %k, null
  %cmp1 = icmp eq ptr %G, null
  %or.cond = or i1 %cmp, %cmp1
  %cmp3 = icmp eq ptr %R, null
  %or.cond1 = or i1 %or.cond, %cmp3
  %cmp5 = icmp eq ptr %modulus, null
  %or.cond2 = or i1 %or.cond1, %cmp5
  br i1 %or.cond2, label %wc_ecc_del_point_ex.exit, label %if.end

if.end:                                           ; preds = %entry
  %call = tail call i32 @sp_count_bits(ptr noundef nonnull %k) #19
  %call6 = tail call i32 @sp_count_bits(ptr noundef nonnull %modulus) #19
  %add = add nsw i32 %call6, 1
  %cmp7 = icmp sgt i32 %call, %add
  br i1 %cmp7, label %wc_ecc_del_point_ex.exit, label %for.body

for.body:                                         ; preds = %if.end, %for.inc
  %indvars.iv = phi i64 [ %indvars.iv.next, %for.inc ], [ 0, %if.end ]
  %arrayidx = getelementptr inbounds nuw [3 x ptr], ptr %M, i64 0, i64 %indvars.iv
  %0 = load ptr, ptr %arrayidx, align 8
  %cmp1.i = icmp eq ptr %0, null
  br i1 %cmp1.i, label %if.end3.i, label %if.end6.i

if.end3.i:                                        ; preds = %for.body
  %call.i = tail call ptr @wolfSSL_Malloc(i64 noundef 3120) #19
  %cmp4.i = icmp eq ptr %call.i, null
  br i1 %cmp4.i, label %wc_ecc_del_point_ex.exit, label %if.end6.i

if.end6.i:                                        ; preds = %if.end3.i, %for.body
  %p.03.i = phi ptr [ %call.i, %if.end3.i ], [ %0, %for.body ]
  tail call void @llvm.memset.p0.i64(ptr noundef nonnull align 8 dereferenceable(3120) %p.03.i, i8 0, i64 3120, i1 false)
  %y.i = getelementptr inbounds nuw i8, ptr %p.03.i, i64 1040
  %z.i = getelementptr inbounds nuw i8, ptr %p.03.i, i64 2080
  %call9.i = tail call i32 @sp_init_multi(ptr noundef nonnull %p.03.i, ptr noundef nonnull %y.i, ptr noundef nonnull %z.i, ptr noundef null, ptr noundef null, ptr noundef null) #19
  %cmp10.not.i = icmp eq i32 %call9.i, 0
  br i1 %cmp10.not.i, label %for.inc, label %if.then12.i

if.then12.i:                                      ; preds = %if.end6.i
  tail call void @wolfSSL_Free(ptr noundef nonnull %p.03.i) #19
  br label %wc_ecc_del_point_ex.exit

for.inc:                                          ; preds = %if.end6.i
  store ptr %p.03.i, ptr %arrayidx, align 8
  %indvars.iv.next = add nuw nsw i64 %indvars.iv, 1
  %exitcond.not = icmp eq i64 %indvars.iv.next, 3
  br i1 %exitcond.not, label %if.end3.i36, label %for.body, !llvm.loop !7

if.end3.i36:                                      ; preds = %for.inc
  %call.i37 = tail call ptr @wolfSSL_Malloc(i64 noundef 3120) #19
  %cmp4.i38 = icmp eq ptr %call.i37, null
  br i1 %cmp4.i38, label %wc_ecc_del_point_ex.exit, label %if.end6.i27

if.end6.i27:                                      ; preds = %if.end3.i36
  tail call void @llvm.memset.p0.i64(ptr noundef nonnull align 8 dereferenceable(3120) %call.i37, i8 0, i64 3120, i1 false)
  %y.i29 = getelementptr inbounds nuw i8, ptr %call.i37, i64 1040
  %z.i30 = getelementptr inbounds nuw i8, ptr %call.i37, i64 2080
  %call9.i31 = tail call i32 @sp_init_multi(ptr noundef nonnull %call.i37, ptr noundef nonnull %y.i29, ptr noundef nonnull %z.i30, ptr noundef null, ptr noundef null, ptr noundef null) #19
  %cmp10.not.i32 = icmp eq i32 %call9.i31, 0
  br i1 %cmp10.not.i32, label %if.end18, label %if.then12.i33

if.then12.i33:                                    ; preds = %if.end6.i27
  tail call void @wolfSSL_Free(ptr noundef nonnull %call.i37) #19
  br label %wc_ecc_del_point_ex.exit

if.end18:                                         ; preds = %if.end6.i27
  %call19 = tail call fastcc i32 @ecc_point_to_mont(ptr noundef %G, ptr noundef nonnull %call.i37, ptr noundef %modulus)
  %cmp20.not = icmp eq i32 %call19, 0
  br i1 %cmp20.not, label %if.end22, label %if.then.i

if.end22:                                         ; preds = %if.end18
  %call23 = call i32 @sp_mont_setup(ptr noundef nonnull %modulus, ptr noundef nonnull %mp) #19
  %cmp24.not = icmp eq i32 %call23, 0
  br i1 %cmp24.not, label %if.end26, label %if.then.i

if.end26:                                         ; preds = %if.end22
  %1 = load i64, ptr %mp, align 8
  %call28 = call fastcc i32 @ecc_mulmod(ptr noundef %k, ptr noundef nonnull %call.i37, ptr noundef %R, ptr noundef %M, ptr noundef %a, ptr noundef %modulus, i64 noundef %1, ptr noundef null)
  %cmp29 = icmp eq i32 %call28, 0
  %tobool = icmp ne i32 %map, 0
  %or.cond3 = and i1 %tobool, %cmp29
  br i1 %or.cond3, label %if.then30, label %if.then.i

if.then30:                                        ; preds = %if.end26
  %2 = load i64, ptr %mp, align 8
  %call.i40 = call i32 @ecc_map_ex(ptr noundef nonnull %R, ptr noundef nonnull %modulus, i64 noundef %2, i32 noundef 0)
  br label %if.then.i

if.then.i:                                        ; preds = %if.end18, %if.end22, %if.then30, %if.end26
  %err.0 = phi i32 [ %call19, %if.end18 ], [ %call23, %if.end22 ], [ %call.i40, %if.then30 ], [ %call28, %if.end26 ]
  call void @sp_clear(ptr noundef nonnull %call.i37) #19
  call void @sp_clear(ptr noundef nonnull %y.i29) #19
  call void @sp_clear(ptr noundef nonnull %z.i30) #19
  call void @wolfSSL_Free(ptr noundef nonnull %call.i37) #19
  br label %wc_ecc_del_point_ex.exit

wc_ecc_del_point_ex.exit:                         ; preds = %if.end3.i, %if.end3.i36, %if.then12.i33, %if.then12.i, %if.end, %entry, %if.then.i
  %err.059 = phi i32 [ %err.0, %if.then.i ], [ -217, %if.end ], [ -170, %entry ], [ %call9.i, %if.then12.i ], [ -125, %if.end3.i36 ], [ %call9.i31, %if.then12.i33 ], [ -125, %if.end3.i ]
  br label %for.body35

for.body35:                                       ; preds = %wc_ecc_del_point_ex.exit, %wc_ecc_del_point_ex.exit47
  %indvars.iv65 = phi i64 [ 0, %wc_ecc_del_point_ex.exit ], [ %indvars.iv.next66, %wc_ecc_del_point_ex.exit47 ]
  %arrayidx37 = getelementptr inbounds nuw [3 x ptr], ptr %M, i64 0, i64 %indvars.iv65
  %3 = load ptr, ptr %arrayidx37, align 8
  %cmp.not.i43 = icmp eq ptr %3, null
  br i1 %cmp.not.i43, label %wc_ecc_del_point_ex.exit47, label %if.then.i44

if.then.i44:                                      ; preds = %for.body35
  call void @sp_clear(ptr noundef nonnull %3) #19
  %y.i45 = getelementptr inbounds nuw i8, ptr %3, i64 1040
  call void @sp_clear(ptr noundef nonnull %y.i45) #19
  %z.i46 = getelementptr inbounds nuw i8, ptr %3, i64 2080
  call void @sp_clear(ptr noundef nonnull %z.i46) #19
  call void @wolfSSL_Free(ptr noundef nonnull %3) #19
  br label %wc_ecc_del_point_ex.exit47

wc_ecc_del_point_ex.exit47:                       ; preds = %for.body35, %if.then.i44
  %indvars.iv.next66 = add nuw nsw i64 %indvars.iv65, 1
  %exitcond68.not = icmp eq i64 %indvars.iv.next66, 3
  br i1 %exitcond68.not, label %for.end40, label %for.body35, !llvm.loop !8

for.end40:                                        ; preds = %wc_ecc_del_point_ex.exit47
  ret i32 %err.059
}